; Function Attrs: mustprogress nofree nounwind willreturn memory(write, argmem: readwrite) uwtable
define internal noundef double @"_ZNSt17_Function_handlerIFddEN15neuralnetworkCV4$_11EE9_M_invokeERKSt9_Any_dataOd"(ptr nonnull readnone align 8 captures(none) %0, ptr noundef nonnull readonly align 8 captures(none) dereferenceable(8) %1) #12 align 2 {
  %.val = load double, ptr %1, align 8, !tbaa !21
  %3 = fcmp olt double %.val, 0.000000e+00
  br i1 %3, label %4, label %"_ZSt10__invoke_rIdRN15neuralnetworkCV4$_11EJdEENSt9enable_ifIX16is_invocable_r_vIT_T0_DpT1_EES4_E4typeEOS5_DpOS6_.exit"

4:                                                ; preds = %2
  %5 = tail call double @exp(double noundef %.val) #32, !tbaa !23
  br label %"_ZSt10__invoke_rIdRN15neuralnetworkCV4$_11EJdEENSt9enable_ifIX16is_invocable_r_vIT_T0_DpT1_EES4_E4typeEOS5_DpOS6_.exit"

"_ZSt10__invoke_rIdRN15neuralnetworkCV4$_11EJdEENSt9enable_ifIX16is_invocable_r_vIT_T0_DpT1_EES4_E4typeEOS5_DpOS6_.exit": ; preds = %2, %4
  %6 = phi double [ %5, %4 ], [ 1.000000e+00, %2 ]
  ret double %6
}